target datalayout = "e-m:e-p270:32:32-p271:32:32-p272:64:64-i64:64-i128:128-f80:128-n8:16:32:64-S128"
target triple = "x86_64-pc-linux-gnu"

%"class.boost::urls::detail::path_ref" = type { ptr, ptr, i64, i64, i64 }
%"class.boost::urls::segments_encoded_ref" = type { %"class.boost::urls::segments_encoded_base", ptr }
%"class.boost::urls::segments_encoded_base" = type { %"class.boost::urls::detail::path_ref" }
%"class.boost::urls::segments_encoded_base::iterator" = type { %"struct.boost::urls::detail::segments_iter_impl" }
%"struct.boost::urls::detail::segments_iter_impl" = type { [8 x i8], %"class.boost::urls::detail::path_ref", i64, i64, i64, i64, %"class.boost::urls::pct_string_view" }
%"class.boost::urls::pct_string_view" = type { %"class.boost::urls::grammar::string_view_base", i64 }
%"class.boost::urls::grammar::string_view_base" = type { %"class.boost::core::basic_string_view" }
%"class.boost::core::basic_string_view" = type { ptr, i64 }
%"struct.boost::urls::detail::any_segments_iter.base" = type <{ ptr, %"class.boost::core::basic_string_view", %"class.boost::core::basic_string_view", i32, i8 }>
%"struct.boost::urls::detail::segment_encoded_iter" = type { %"struct.boost::urls::detail::any_segments_iter.base", i8, [2 x i8] }

; Function Attrs: mustprogress nounwind uwtable
define linkonce_odr hidden void @_ZN5boost4urls6detail17any_segments_iterD2Ev(ptr noundef nonnull align 8 dereferenceable(45) %0) unnamed_addr #2 comdat align 2 {
  %2 = alloca ptr, align 8
  store ptr %0, ptr %2, align 8, !tbaa !3
  ret void
}

; Function Attrs: mustprogress nounwind uwtable
define linkonce_odr hidden void @_ZN5boost4urls21segments_encoded_base8iteratorC2ERKNS0_6detail18segments_iter_implE(ptr noundef nonnull align 8 dereferenceable(104) %0, ptr noundef nonnull align 8 dereferenceable(104) %1) unnamed_addr #2 comdat align 2 {
  %3 = alloca ptr, align 8
  %4 = alloca ptr, align 8
  store ptr %0, ptr %3, align 8, !tbaa !3
  store ptr %1, ptr %4, align 8, !tbaa !3
  %5 = load ptr, ptr %3, align 8
  %6 = getelementptr inbounds nuw %"class.boost::urls::segments_encoded_base::iterator", ptr %5, i32 0, i32 0
  %7 = load ptr, ptr %4, align 8, !tbaa !3
  call void @llvm.memcpy.p0.p0.i64(ptr align 8 %6, ptr align 8 %7, i64 104, i1 false)
  ret void
}

; Function Attrs: mustprogress uwtable
define void @_ZN5boost4urls20segments_encoded_ref7replaceENS0_21segments_encoded_base8iteratorES3_NS0_15pct_string_viewE(ptr dead_on_unwind noalias writable sret(%"class.boost::urls::segments_encoded_base::iterator") align 8 %0, ptr noundef nonnull align 8 dereferenceable(48) %1, ptr noundef byval(%"class.boost::urls::segments_encoded_base::iterator") align 8 %2, ptr noundef byval(%"class.boost::urls::segments_encoded_base::iterator") align 8 %3, ptr noundef byval(%"class.boost::urls::pct_string_view") align 8 %4) #4 align 2 personality ptr @__gxx_personality_v0 {
  %6 = alloca ptr, align 8
  %7 = alloca %"struct.boost::urls::detail::segments_iter_impl", align 8
  %8 = alloca %"struct.boost::urls::detail::segment_encoded_iter", align 8
  %9 = alloca ptr, align 8
  %10 = alloca i32, align 4
  store ptr %1, ptr %6, align 8, !tbaa !3
  %11 = load ptr, ptr %6, align 8
  call void @llvm.lifetime.start.p0(i64 104, ptr %7) #14
  %12 = getelementptr inbounds nuw %"class.boost::urls::segments_encoded_ref", ptr %11, i32 0, i32 1
  %13 = load ptr, ptr %12, align 8, !tbaa !7
  %14 = getelementptr inbounds nuw %"class.boost::urls::segments_encoded_base::iterator", ptr %2, i32 0, i32 0
  %15 = getelementptr inbounds nuw %"class.boost::urls::segments_encoded_base::iterator", ptr %3, i32 0, i32 0
  call void @llvm.lifetime.start.p0(i64 48, ptr %8) #14
  call void @_ZN5boost4urls6detail20segment_encoded_iterC1ERKNS0_15pct_string_viewE(ptr noundef nonnull align 8 dereferenceable(46) %8, ptr noundef nonnull align 8 dereferenceable(24) %4) #14
  invoke void @_ZN5boost4urls8url_base13edit_segmentsERKNS0_6detail18segments_iter_implES5_ONS2_17any_segments_iterEi(ptr dead_on_unwind writable sret(%"struct.boost::urls::detail::segments_iter_impl") align 8 %7, ptr noundef nonnull align 8 dereferenceable(216) %13, ptr noundef nonnull align 8 dereferenceable(104) %14, ptr noundef nonnull align 8 dereferenceable(104) %15, ptr noundef nonnull align 8 dereferenceable(45) %8, i32 noundef -1)
          to label %16 unwind label %17

16:                                               ; preds = %5
  call void @_ZN5boost4urls21segments_encoded_base8iteratorC2ERKNS0_6detail18segments_iter_implE(ptr noundef nonnull align 8 dereferenceable(104) %0, ptr noundef nonnull align 8 dereferenceable(104) %7) #14
  call void @_ZN5boost4urls6detail17any_segments_iterD2Ev(ptr noundef nonnull align 8 dereferenceable(46) %8) #14
  call void @llvm.lifetime.end.p0(i64 48, ptr %8) #14
  call void @llvm.lifetime.end.p0(i64 104, ptr %7) #14
  ret void

17:                                               ; preds = %5
  %18 = landingpad { ptr, i32 }
          cleanup
  %19 = extractvalue { ptr, i32 } %18, 0
  store ptr %19, ptr %9, align 8
  %20 = extractvalue { ptr, i32 } %18, 1
  store i32 %20, ptr %10, align 4
  call void @_ZN5boost4urls6detail17any_segments_iterD2Ev(ptr noundef nonnull align 8 dereferenceable(46) %8) #14
  call void @llvm.lifetime.end.p0(i64 48, ptr %8) #14
  call void @llvm.lifetime.end.p0(i64 104, ptr %7) #14
  br label %21

21:                                               ; preds = %17
  %22 = load ptr, ptr %9, align 8
  %23 = load i32, ptr %10, align 4
  %24 = insertvalue { ptr, i32 } poison, ptr %22, 0
  %25 = insertvalue { ptr, i32 } %24, i32 %23, 1
  resume { ptr, i32 } %25
}