; Function Attrs: mustprogress uwtable
define void @_ZN5boost4urls20segments_encoded_ref7replaceENS0_21segments_encoded_base8iteratorES3_NS0_15pct_string_viewE(ptr dead_on_unwind noalias nocapture writable writeonly sret(%"class.boost::urls::segments_encoded_base::iterator") align 8 %0, ptr nocapture noundef nonnull readonly align 8 dereferenceable(48) %1, ptr noundef byval(%"class.boost::urls::segments_encoded_base::iterator") align 8 %2, ptr noundef byval(%"class.boost::urls::segments_encoded_base::iterator") align 8 %3, ptr noundef nonnull byval(%"class.boost::urls::pct_string_view") align 8 %4) local_unnamed_addr #5 align 2 personality ptr @__gxx_personality_v0 {
  %6 = alloca %"struct.boost::urls::detail::segment_encoded_iter", align 8
  %7 = getelementptr inbounds nuw i8, ptr %1, i64 40
  %8 = load ptr, ptr %7, align 8, !tbaa !3
  call void @llvm.lifetime.start.p0(i64 48, ptr nonnull %6) #12
  call void @_ZN5boost4urls6detail20segment_encoded_iterC1ERKNS0_15pct_string_viewE(ptr noundef nonnull align 8 dereferenceable(46) %6, ptr noundef nonnull align 8 dereferenceable(24) %4) #12
  call void @_ZN5boost4urls8url_base13edit_segmentsERKNS0_6detail18segments_iter_implES5_ONS2_17any_segments_iterEi(ptr dead_on_unwind nonnull writable sret(%"struct.boost::urls::detail::segments_iter_impl") align 8 %0, ptr noundef nonnull align 8 dereferenceable(216) %8, ptr noundef nonnull align 8 dereferenceable(104) %2, ptr noundef nonnull align 8 dereferenceable(104) %3, ptr noundef nonnull align 8 dereferenceable(45) %6, i32 noundef -1)
  call void @llvm.lifetime.end.p0(i64 48, ptr nonnull %6) #12
  ret void
}